target datalayout = "e-m:e-p270:32:32-p271:32:32-p272:64:64-i64:64-i128:128-f80:128-n8:16:32:64-S128"
target triple = "x86_64-pc-linux-gnu"

@parent = internal global i32 1, align 4

; Function Attrs: nounwind uwtable
define internal void @sapi_fcgi_flush(ptr noundef %0) #0 {
  %2 = alloca ptr, align 8
  %3 = alloca ptr, align 8
  store ptr %0, ptr %2, align 8, !tbaa !66
  call void @llvm.lifetime.start.p0(i64 8, ptr %3) #20
  %4 = load ptr, ptr %2, align 8, !tbaa !66
  store ptr %4, ptr %3, align 8, !tbaa !61
  %5 = load i32, ptr @parent, align 4, !tbaa !73
  %6 = icmp ne i32 %5, 0
  br i1 %6, label %17, label %7

7:                                                ; preds = %1
  %8 = load ptr, ptr %3, align 8, !tbaa !61
  %9 = icmp ne ptr %8, null
  br i1 %9, label %10, label %17

10:                                               ; preds = %7
  %11 = call i32 @sapi_send_headers()
  %12 = load ptr, ptr %3, align 8, !tbaa !61
  %13 = call i32 @fcgi_flush(ptr noundef %12, i32 noundef 0)
  %14 = icmp ne i32 %13, 0
  br i1 %14, label %16, label %15

15:                                               ; preds = %10
  call void @php_handle_aborted_connection()
  br label %16

16:                                               ; preds = %15, %10
  br label %17

17:                                               ; preds = %16, %7, %1
  call void @llvm.lifetime.end.p0(i64 8, ptr %3) #20
  ret void
}