; Function Attrs: nounwind uwtable
define internal void @sapi_fcgi_flush(ptr noundef %0) #0 {
  %.b = load i1, ptr @parent, align 4
  %2 = icmp ne ptr %0, null
  %or.cond = and i1 %2, %.b
  br i1 %or.cond, label %3, label %7

3:                                                ; preds = %1
  %4 = tail call i32 @sapi_send_headers() #29
  %5 = tail call i32 @fcgi_flush(ptr noundef nonnull %0, i32 noundef 0) #29
  %.not = icmp eq i32 %5, 0
  br i1 %.not, label %6, label %7

6:                                                ; preds = %3
  tail call void @php_handle_aborted_connection() #29
  br label %7

7:                                                ; preds = %3, %6, %1
  ret void
}